Certificate:
    Data:
        Version: 1 (0x0)
        Serial Number:
            c7:5f:88:65:ae:bd:c0:d9
        Signature Algorithm: sha256WithRSAEncryption
        Issuer: C = US, ST = New York, L = New York City, O = 10Gen, OU = Kernel, CN = My Cert Authority, emailAddress = root@lazarus
        Validity
            Not Before: Nov 13 22:13:47 2023 GMT
            Not After : Feb 10 22:13:47 2026 GMT
        Subject: C = US, ST = New York, L = New York City, O = 10Gen, OU = kerneluser, CN = client
        Subject Public Key Info:
            Public Key Algorithm: rsaEncryption
                Public-Key: (4096 bit)
                Modulus:
                    00:c0:77:d9:7a:d5:c9:18:bc:d1:ee:9d:b7:21:16:
                    7d:f8:06:ca:2d:f2:33:6c:ec:5f:be:6b:07:2b:f8:
                    9e:25:22:57:67:66:3c:8d:87:ad:41:65:d6:79:f4:
                    cd:32:0d:51:88:9a:4f:e6:97:7c:ba:02:af:37:d0:
                    d1:35:ba:05:6d:d2:28:ae:42:6b:50:37:93:17:5b:
                    03:c0:e5:c4:55:e9:57:a9:2e:ce:67:91:01:09:92:
                    f5:c7:e4:18:33:a2:c2:a9:8a:0c:b7:06:9e:2c:c2:
                    aa:07:1e:1a:48:f9:5e:cb:b0:fb:4d:f1:d0:d8:06:
                    34:4b:fe:97:60:6f:89:ca:b7:9b:0a:10:12:d4:33:
                    e8:90:00:5f:98:2a:03:cc:76:81:19:17:fb:1c:dd:
                    9a:c4:7f:a7:9e:c6:48:2e:89:2a:ba:88:bc:23:d6:
                    49:fa:0c:24:96:90:f7:68:2f:02:79:fb:bf:7a:d7:
                    6d:13:65:a0:1a:48:86:46:39:2b:4f:ce:74:8e:ab:
                    e5:11:a3:47:15:92:2a:6a:b6:fd:9f:fc:0e:f2:01:
                    a9:97:02:fc:a3:54:09:68:33:77:59:b6:ba:8e:ed:
                    52:f2:2d:63:5a:cd:bc:e2:fe:f8:68:26:f0:e3:71:
                    33:66:8a:ff:3b:1a:4a:3c:48:16:0f:28:1d:27:28:
                    9a:3f:5c:de:26:15:dc:d1:72:63:b1:10:ca:5f:70:
                    d1:36:40:d9:d3:d1:c1:a4:a8:66:69:b1:67:54:ee:
                    ba:e4:69:3e:c2:e1:ad:dd:91:4e:88:7e:f7:61:6b:
                    3a:8d:ca:dd:4c:38:e7:9c:32:5c:e7:70:fa:9f:ce:
                    91:da:d2:ec:e6:f8:d5:c3:c4:b9:d6:37:ac:47:56:
                    ec:cf:1e:d4:f0:a2:93:de:a6:7b:6b:79:d5:2e:f7:
                    c9:62:dd:35:1e:63:dd:f8:5c:06:c2:22:1a:b1:65:
                    2d:52:13:c2:13:43:5b:4b:25:16:30:ac:e0:3e:6a:
                    f9:e3:9f:d8:5b:7d:f9:c6:29:cd:bd:45:6d:60:75:
                    95:30:d0:e8:72:08:d6:d4:8b:0d:ec:cb:40:4f:55:
                    ab:0f:6d:4f:d0:0d:52:3d:24:aa:3d:19:a7:74:5b:
                    c6:e3:62:5e:45:f9:a1:0f:a4:47:38:b9:40:6b:d3:
                    5b:2d:64:87:ea:c1:cd:25:5c:08:32:32:97:41:ea:
                    14:8f:4b:08:0c:88:ef:03:4c:b7:2c:41:62:05:ca:
                    e9:32:9d:dc:96:20:4e:85:0e:c4:6e:9e:22:fe:b2:
                    55:19:22:cd:27:50:33:20:75:37:58:68:f3:46:90:
                    c7:47:d0:51:4e:d8:fb:55:ba:37:ac:02:c0:94:fd:
                    77:49:07
                Exponent: 65537 (0x10001)
    Signature Algorithm: sha256WithRSAEncryption
    Signature Value:
        52:36:c6:7e:34:df:3b:63:34:93:fe:31:e4:02:73:48:a4:fc:
        04:5c:ea:2b:79:b1:3e:ba:3a:c6:8d:38:4c:42:ab:89:ad:66:
        ce:93:a9:a2:ee:38:e8:fc:46:79:28:d1:eb:9d:7c:36:24:aa:
        55:cd:62:0b:5e:5c:a6:d3:b5:64:1a:8f:b4:74:87:a0:2b:07:
        90:11:fb:b8:97:58:ff:b2:e2:02:01:9d:cf:b8:5a:78:7e:cf:
        c6:5a:64:ab:29:01:34:55:c7:bf:00:ff:f9:ec:27:ba:11:85:
        d2:80:93:c9:b1:89:09:13:44:13:bd:df:01:f7:fa:f0:1b:4c:
        b0:b1:ac:bc:e5:48:d1:7a:48:c5:f7:a8:36:d2:a8:c9:66:c6:
        52:ae:0b:8c:bb:29:30:7d:dc:8b:02:78:3a:3e:78:ce:cd:cc:
        f5:f4:17:2d:d0:17:95:14:3a:d4:45:08:18:1a:a9:f1:af:f6:
        6c:81:5d:d5:a9:f7:53:9b:98:0e:f7:64:09:7c:32:7d:36:52:
        44:ba:20:bc:5b:9b:18:50:20:0c:21:d2:83:51:36:85:41:ef:
        66:a4:18:12:3a:95:06:92:3c:e9:f7:e8:74:62:18:78:0b:33:
        f3:db:55:94:bf:fd:87:2c:46:c0:f5:47:e0:5b:02:aa:38:1b:
        75:17:01:fb:12:e0:26:f2:fd:c5:16:9f:c9:ad:d1:24:d8:3b:
        c0:89:7f:46:2f:a6:a4:40:e0:62:aa:44:88:a8:bc:2f:70:44:
        3e:52:b3:6b:58:42:7c:fe:4f:1f:16:77:68:c2:11:e3:6e:ac:
        19:42:25:fe:f3:c2:9d:04:ca:d7:49:30:72:29:14:80:a8:f5:
        64:9b:41:74:dc:e7:6f:d6:ae:d7:c4:02:c8:93:fe:0b:cf:d0:
        a6:e1:db:98:97:6b:ac:e3:d3:f7:51:da:9b:8e:23:95:29:59:
        45:df:72:e4:1b:1e:19:ac:4f:59:37:ea:f2:62:28:89:d9:c4:
        a0:a3:f8:8f:b0:26:03:2d:e6:c9:ba:e2:ae:88:49:da:1f:6c:
        a6:55:fd:a0:35:79:01:de:a7:be:01:2b:bb:89:65:b6:f1:1f:
        ae:24:34:11:ea:9c:43:0d:90:c4:39:4a:6f:58:a4:37:5e:82:
        da:86:24:ce:31:50:b1:9e:fd:d1:6e:91:55:10:2c:e0:99:3b:
        61:3d:f3:4a:8a:52:57:e7:52:4b:ee:c5:60:08:58:29:fe:37:
        49:3f:5a:a1:62:8b:8a:83:0d:d9:d7:9d:82:61:9a:3c:dd:41:
        83:ca:75:9b:4c:2d:52:cb:ca:23:b2:4c:eb:77:12:55:6c:db:
        a7:29:d3:8a:6d:97:a9:7d
-----BEGIN CERTIFICATE-----
MIIFfTCCA2UCCQDHX4hlrr3A2TANBgkqhkiG9w0BAQsFADCBkjELMAkGA1UEBhMC
VVMxETAPBgNVBAgMCE5ldyBZb3JrMRYwFAYDVQQHDA1OZXcgWW9yayBDaXR5MQ4w
DAYDVQQKDAUxMEdlbjEPMA0GA1UECwwGS2VybmVsMRowGAYDVQQDDBFNeSBDZXJ0
IEF1dGhvcml0eTEbMBkGCSqGSIb3DQEJARYMcm9vdEBsYXphcnVzMB4XDTIzMTEx
MzIyMTM0N1oXDTI2MDIxMDIyMTM0N1owbjELMAkGA1UEBhMCVVMxETAPBgNVBAgM
CE5ldyBZb3JrMRYwFAYDVQQHDA1OZXcgWW9yayBDaXR5MQ4wDAYDVQQKDAUxMEdl
bjETMBEGA1UECwwKa2VybmVsdXNlcjEPMA0GA1UEAwwGY2xpZW50MIICIjANBgkq
hkiG9w0BAQEFAAOCAg8AMIICCgKCAgEAwHfZetXJGLzR7p23IRZ9+AbKLfIzbOxf
vmsHK/ieJSJXZ2Y8jYetQWXWefTNMg1RiJpP5pd8ugKvN9DRNboFbdIorkJrUDeT
F1sDwOXEVelXqS7OZ5EBCZL1x+QYM6LCqYoMtwaeLMKqBx4aSPley7D7TfHQ2AY0
S/6XYG+JyrebChAS1DPokABfmCoDzHaBGRf7HN2axH+nnsZILokquoi8I9ZJ+gwk
lpD3aC8Cefu/etdtE2WgGkiGRjkrT850jqvlEaNHFZIqarb9n/wO8gGplwL8o1QJ
aDN3Wba6ju1S8i1jWs284v74aCbw43EzZor/OxpKPEgWDygdJyiaP1zeJhXc0XJj
sRDKX3DRNkDZ09HBpKhmabFnVO665Gk+wuGt3ZFOiH73YWs6jcrdTDjnnDJc53D6
n86R2tLs5vjVw8S51jesR1bszx7U8KKT3qZ7a3nVLvfJYt01HmPd+FwGwiIasWUt
UhPCE0NbSyUWMKzgPmr545/YW335xinNvUVtYHWVMNDocgjW1IsN7MtAT1WrD21P
0A1SPSSqPRmndFvG42JeRfmhD6RHOLlAa9NbLWSH6sHNJVwIMjKXQeoUj0sIDIjv
A0y3LEFiBcrpMp3cliBOhQ7Ebp4i/rJVGSLNJ1AzIHU3WGjzRpDHR9BRTtj7Vbo3
rALAlP13SQcCAwEAATANBgkqhkiG9w0BAQsFAAOCAgEAUjbGfjTfO2M0k/4x5AJz
SKT8BFzqK3mxPro6xo04TEKria1mzpOpou446PxGeSjR6518NiSqVc1iC15cptO1
ZBqPtHSHoCsHkBH7uJdY/7LiAgGdz7haeH7PxlpkqykBNFXHvwD/+ewnuhGF0oCT
ybGJCRNEE73fAff68BtMsLGsvOVI0XpIxfeoNtKoyWbGUq4LjLspMH3ciwJ4Oj54
zs3M9fQXLdAXlRQ61EUIGBqp8a/2bIFd1an3U5uYDvdkCXwyfTZSRLogvFubGFAg
DCHSg1E2hUHvZqQYEjqVBpI86ffodGIYeAsz89tVlL/9hyxGwPVH4FsCqjgbdRcB
+xLgJvL9xRafya3RJNg7wIl/Ri+mpEDgYqpEiKi8L3BEPlKza1hCfP5PHxZ3aMIR
426sGUIl/vPCnQTK10kwcikUgKj1ZJtBdNznb9au18QCyJP+C8/QpuHbmJdrrOPT
91Ham44jlSlZRd9y5BseGaxPWTfq8mIoidnEoKP4j7AmAy3mybrirohJ2h9splX9
oDV5Ad6nvgEru4lltvEfriQ0EeqcQw2QxDlKb1ikN16C2oYkzjFQsZ790W6RVRAs
4Jk7YT3zSopSV+dSS+7FYAhYKf43ST9aoWKLioMN2dedgmGaPN1Bg8p1m0wtUsvK
I7JM63cSVWzbpynTim2XqX0=
-----END CERTIFICATE-----
-----BEGIN PRIVATE KEY-----
MIIJQgIBADANBgkqhkiG9w0BAQEFAASCCSwwggkoAgEAAoICAQDAd9l61ckYvNHu
nbchFn34Bsot8jNs7F++awcr+J4lIldnZjyNh61BZdZ59M0yDVGImk/ml3y6Aq83
0NE1ugVt0iiuQmtQN5MXWwPA5cRV6VepLs5nkQEJkvXH5BgzosKpigy3Bp4swqoH
HhpI+V7LsPtN8dDYBjRL/pdgb4nKt5sKEBLUM+iQAF+YKgPMdoEZF/sc3ZrEf6ee
xkguiSq6iLwj1kn6DCSWkPdoLwJ5+796120TZaAaSIZGOStPznSOq+URo0cVkipq
tv2f/A7yAamXAvyjVAloM3dZtrqO7VLyLWNazbzi/vhoJvDjcTNmiv87Gko8SBYP
KB0nKJo/XN4mFdzRcmOxEMpfcNE2QNnT0cGkqGZpsWdU7rrkaT7C4a3dkU6Ifvdh
azqNyt1MOOecMlzncPqfzpHa0uzm+NXDxLnWN6xHVuzPHtTwopPepntredUu98li
3TUeY934XAbCIhqxZS1SE8ITQ1tLJRYwrOA+avnjn9hbffnGKc29RW1gdZUw0Ohy
CNbUiw3sy0BPVasPbU/QDVI9JKo9Gad0W8bjYl5F+aEPpEc4uUBr01stZIfqwc0l
XAgyMpdB6hSPSwgMiO8DTLcsQWIFyukyndyWIE6FDsRuniL+slUZIs0nUDMgdTdY
aPNGkMdH0FFO2PtVujesAsCU/XdJBwIDAQABAoICABSpyVOCuEBLpU406IBI5eVG
9VXRduvuxKiw3Og/nNrnwPJ862tWcadfw5L8UTtaarJ7vrBG+0ENILqhVJSsEAEm
Wu+6ecL29HfBcbm38Ug38Q1c1RQRYUch2/lF58NDahrBk3Pi5gBwNcjl1nSXMTI1
IgXQPFe08tBl2OKllumIpMCD0UGvAPzUzW6MtDOzVVDYXkFPGVqXSeul5gH4//le
zLQcQXzy6MqxbZ5lzaJDAN+zWSaH9pRbzO6lHJ1I0QKwObuXB/6s3pjuZHRUn1Yk
D40C6RSv5QKm491h3M2TdSBC9zO8etb0AL9NzvbcJGSR76zsuaOXKace62JU3ZpX
1DSwqpwhqTHtr6Evf11TxXFukw1F3ixtPGvSkj71xLtU63IPB+Ye8GCPS+gfX6HV
cdbrAPBKUSJeVvD26+jocArNtGh5rt8LbUbhwmW/BgNOR6Pz4XVydWb+ZRQZxpAU
KoIMqSpOj0NV0x3CWUcs2UjLZlMPgA0PXcXy/KbSppU1HpbfwWoHKnsJx8wGNU7p
gFHrt8BG9l9Co6gueJqkPchYPomOrjl5342rDqN8YBMojR4ZJA7D3grxru7zDl7A
Ng4vtnlOL5Y46C6Hc7V072ABxxV9jow8XQrGaUjEsZuZDI2B9a73rJUg3wWFS1bR
F/wPzvwZ0L/SlWvrf6DhAoIBAQD8UW59R/jjXsYyE8fimeS5YngeijMdWvwbhbDU
pWMBSwGwaQRD5EzUNlv1+QdMMPh2Cin656uAetaRcCkDB7D/Sth2SvgyOBjyqOCu
ZrvkgYxqzEcx+S1mnEivgJTWP8xuynibMNYEAOzOfOMbmAsLfxcAsu7TJfLmBsiw
iLSIwM/OwXzljcUH5IYygZ36O304aoJ9EHU8fSrVSrJpwpuSLvI854JOOtQrDIaL
PKWXkwmXbjpk0lasHUykWUyRusm4p3tVVipCDenUCWIdkpWm0J/Xqs+RcEUF5vhL
vB5zkthjSMXAYyh5K9hQiAnlXKs5OBuqSDELjUG17qQ/TlDrAoIBAQDDRtclV2Zy
l1fFxQqPzAcLqKbL8LfN3cqa8cHUAV2adv09P1sIEWnYN1yATMC8Y85DrWfaUb+t
gA1ejrove0QUSXR8A9Ft0+sR4SxT29BFI44vD407ADJTOBw5MzWescBrwj8UHPpj
lyamZmK/vRUWzu1CQgiBKApcklzH0Q6+Zdsi/rMor+NlTcYiMzzAN/rlYfk7zKrU
Ki2M6sS41rVKnuimjdAUSrvhwPDqmpBm+A+xErFHhrgI/uqg6TwBTew85OnVzFWp
9Ss1f6zBMz5YBcPHPwvPfD0EmRdOUxzcuc0YShK8Fcr20muq0usC/6NE6du42WxB
6x6lHayZEIFVAoIBAGvJ6daRUYzoZujrtF9keOaNX11EkrN+s+aaBUHCaXoa7dzL
8CuEsyGRG1YIDYsJ/IqIqwhpwcVANLuq24pU1dMpyTE3s7HYbyfy5xD6CFiE01So
cd2yYifMqex3lJ22YYIO8tjxUuwg7QkFJwwZttYxc8Uzq3z+YDbOPRvVOrKVE/Fy
jQWPu9U0VfPrlW5ZzZO1RIti5YJywkKeB3vQzB71+Tv1dqAu14aQckW3IdKP2PAd
AcsiZC5g0eX/1AsJbbV5ruF0ztarFPIlFAooHdBGnZJHgSbTfFkaI4ZPFf8vg0te
wkP+2EJzbZRxmTCnlun5wy/KaVFTBfhPu1DkBwMCggEBAIIBNJTgpgzeIwpAjzKC
o6IoartVjBjbctpK3z70lcuTMi9HcaRia3QOD2A/OQVy8MxvsrdPO2wX106/eMbJ
qt5StOEnbZNPxa0GmwtNSU/uRuef0+eWzupGbcvLAwSe1Dspe/M5A52v8IRRn6aF
DHg91QkKizzpWlSdAHXrAYTSrNyUctRAnQRBjgoQ0H4sBrYVzub38DcFyYOKfOON
1e5S8xKHUSNhScoXOI0Hz+EtfszlY+75iqY6iBwOiutXZFJ6GA9FVTasSVL5qBqL
shLJ67hHieZdkQXxoel8PbfZXuivz982JwTBu/pjJyC87oafpq9e2Mrd7G4C3nic
220CggEAVWGiqv7uszFgIigB828FPqDC1bwMKDWXk6TBOK0gC+8azx1uAC4l0XAe
13mTW6CT6zwqYwIxqchMgQOQa1B6havpjxd4BdXr4Z69akjpCQOUUGM+buK2OStN
l/whybmGZiePHr+TtLqbBtmmFgssBSjyYOZATsug9+lCKTOPH28gVjZILTsqkloD
3cK9q7hTJPjiMoCekws4daSt9EXBKN5pFNw9rc7x4uL9l9RXtR+K1dmzKXwwQ6o2
Jj5Q4X6RwoYVpDU9nJVFf/NZCGs4g/ntsJy/ko0j6lTmPFDNZ1C5Nd/JrbyJiCXz
TPIbwOq4Rz45eHdV/YplUdifaDeNlg==
-----END PRIVATE KEY-----
